Certificate:
    Data:
        Version: 3 (0x2)
        Serial Number:
            e0:32:5e:26:10:67:2c:d6
        Signature Algorithm: sha1WithRSAEncryption
        Issuer: C=FR, ST=France, O=OpenR66, OU=Testing purpose, CN=OpenR66 2008/emailAddress=openlsd@free.fr
        Validity
            Not Before: Jul  5 10:42:45 2008 GMT
            Not After : Jul  5 10:42:45 2009 GMT
        Subject: C=FR, ST=France, L=Paris, O=OpenR66, OU=Testing purpose, CN=OpenR66 2008/emailAddress=openlsd@free.fr
        Subject Public Key Info:
            Public Key Algorithm: rsaEncryption
            RSA Public Key: (1024 bit)
                Modulus (1024 bit):
                    00:bc:5c:0a:80:1d:60:fd:ca:d8:34:9a:92:7d:ef:
                    d6:fc:3c:65:44:de:00:d7:e0:99:25:58:ac:0d:85:
                    25:7e:94:4c:2a:51:4c:92:3c:2d:3e:6d:0f:7a:42:
                    1c:67:97:75:e3:15:36:f6:0a:ea:95:84:4c:21:3f:
                    00:91:f7:5b:08:c4:35:c9:1c:2a:90:79:c1:cf:2a:
                    3f:eb:e3:d0:50:66:81:25:b0:36:dc:80:d9:30:c5:
                    77:22:fd:4b:6e:98:aa:74:06:76:6a:b5:92:bf:52:
                    24:34:b0:38:26:50:16:42:29:c5:dc:15:78:07:b9:
                    40:78:0f:20:5b:9d:f9:6b:57
                Exponent: 65537 (0x10001)
        X509v3 extensions:
            X509v3 Basic Constraints: 
                CA:FALSE
            Netscape Comment: 
                OpenSSL Generated Certificate
            X509v3 Subject Key Identifier: 
                17:86:D8:4A:12:2B:E4:FC:2A:93:EA:76:89:C3:AA:1C:ED:E6:E1:27
            X509v3 Authority Key Identifier: 
                keyid:FA:6E:32:A2:D1:7E:FF:74:43:51:A1:6E:23:70:1F:6C:84:CB:3A:BF

    Signature Algorithm: sha1WithRSAEncryption
        44:cf:29:da:e4:99:fa:f8:a5:e5:ea:99:be:0f:a3:6e:68:c1:
        e3:c5:a0:f6:1d:ef:6c:21:af:5d:46:d1:3b:14:03:02:79:3a:
        e7:c2:d8:e7:bd:e7:bf:14:65:85:35:19:43:6b:ac:63:27:a5:
        c8:f4:e6:f8:2a:2f:ea:c0:82:3d:e9:9e:19:77:62:6c:2a:34:
        7f:7e:24:86:9b:f6:79:aa:c7:c5:99:02:6a:28:c0:a1:30:f8:
        10:48:6f:b6:5f:bb:71:bd:4c:0d:e4:63:7b:1c:19:68:fe:cf:
        09:9d:1b:36:dc:cc:1c:36:27:8d:46:1f:04:c3:3e:78:ad:43:
        bf:83
-----BEGIN CERTIFICATE-----
MIIDDTCCAnagAwIBAgIJAOAyXiYQZyzWMA0GCSqGSIb3DQEBBQUAMIGBMQswCQYD
VQQGEwJGUjEPMA0GA1UECBMGRnJhbmNlMRAwDgYDVQQKEwdPcGVuUjY2MRgwFgYD
VQQLEw9UZXN0aW5nIHB1cnBvc2UxFTATBgNVBAMTDE9wZW5SNjYgMjAwODEeMBwG
CSqGSIb3DQEJARYPb3BlbmxzZEBmcmVlLmZyMB4XDTA4MDcwNTEwNDI0NVoXDTA5
MDcwNTEwNDI0NVowgZExCzAJBgNVBAYTAkZSMQ8wDQYDVQQIEwZGcmFuY2UxDjAM
BgNVBAcTBVBhcmlzMRAwDgYDVQQKEwdPcGVuUjY2MRgwFgYDVQQLEw9UZXN0aW5n
IHB1cnBvc2UxFTATBgNVBAMTDE9wZW5SNjYgMjAwODEeMBwGCSqGSIb3DQEJARYP
b3BlbmxzZEBmcmVlLmZyMIGfMA0GCSqGSIb3DQEBAQUAA4GNADCBiQKBgQC8XAqA
HWD9ytg0mpJ979b8PGVE3gDX4JklWKwNhSV+lEwqUUySPC0+bQ96Qhxnl3XjFTb2
CuqVhEwhPwCR91sIxDXJHCqQecHPKj/r49BQZoElsDbcgNkwxXci/UtumKp0BnZq
tZK/UiQ0sDgmUBZCKcXcFXgHuUB4DyBbnflrVwIDAQABo3sweTAJBgNVHRMEAjAA
MCwGCWCGSAGG+EIBDQQfFh1PcGVuU1NMIEdlbmVyYXRlZCBDZXJ0aWZpY2F0ZTAd
BgNVHQ4EFgQUF4bYShIr5Pwqk+p2icOqHO3m4ScwHwYDVR0jBBgwFoAU+m4yotF+
/3RDUaFuI3AfbITLOr8wDQYJKoZIhvcNAQEFBQADgYEARM8p2uSZ+vil5eqZvg+j
bmjB48Wg9h3vbCGvXUbROxQDAnk658LY573nvxRlhTUZQ2usYyelyPTm+Cov6sCC
PemeGXdibCo0f34khpv2earHxZkCaijAoTD4EEhvtl+7cb1MDeRjexwZaP7PCZ0b
NtzMHDYnjUYfBMM+eK1Dv4M=
-----END CERTIFICATE-----
