Certificate:
    Data:
        Version: 3 (0x2)
        Serial Number:
            e0:32:5e:26:10:67:2c:d5
        Signature Algorithm: sha1WithRSAEncryption
        Issuer: C=FR, ST=France, O=OpenR66, OU=Testing purpose, CN=OpenR66 2008/emailAddress=openlsd@free.fr
        Validity
            Not Before: Jul  5 10:35:31 2008 GMT
            Not After : Jul  5 10:35:31 2011 GMT
        Subject: C=FR, ST=France, O=OpenR66, OU=Testing purpose, CN=OpenR66 2008/emailAddress=openlsd@free.fr
        Subject Public Key Info:
            Public Key Algorithm: rsaEncryption
            RSA Public Key: (1024 bit)
                Modulus (1024 bit):
                    00:cf:fd:76:ef:03:a1:e4:6a:0d:5e:d7:26:d1:dd:
                    16:8a:dd:ac:cc:79:43:be:f5:da:9f:1a:b5:03:50:
                    87:e8:dc:8d:5e:a9:83:cb:c5:ab:d8:42:39:8c:b8:
                    05:2c:1b:79:e0:85:e4:68:2a:5b:b8:21:1f:30:04:
                    2e:13:fd:c5:f3:18:4d:4c:79:5a:74:f2:d8:bd:41:
                    dd:2a:ba:4f:ef:40:67:7d:c9:9b:da:f7:a4:8b:09:
                    5c:d8:bc:72:60:5f:6e:ae:90:9f:3b:64:8a:ed:da:
                    44:11:0e:ea:d2:e7:7a:e3:b8:1f:8d:30:92:80:2a:
                    0e:b2:1b:d5:72:a9:11:17:df
                Exponent: 65537 (0x10001)
        X509v3 extensions:
            X509v3 Subject Key Identifier: 
                FA:6E:32:A2:D1:7E:FF:74:43:51:A1:6E:23:70:1F:6C:84:CB:3A:BF
            X509v3 Authority Key Identifier: 
                keyid:FA:6E:32:A2:D1:7E:FF:74:43:51:A1:6E:23:70:1F:6C:84:CB:3A:BF
                DirName:/C=FR/ST=France/O=OpenR66/OU=Testing purpose/CN=OpenR66 2008/emailAddress=openlsd@free.fr
                serial:E0:32:5E:26:10:67:2C:D5

            X509v3 Basic Constraints: 
                CA:TRUE
    Signature Algorithm: sha1WithRSAEncryption
        30:2f:6d:40:60:d9:15:15:d7:ee:6c:04:73:f4:22:59:7f:29:
        a1:24:db:a0:da:b4:35:1e:b6:bf:1f:39:9d:17:21:76:7d:77:
        7f:a3:fd:e2:bd:4e:58:6e:9c:56:f4:9f:28:a9:22:0c:78:f5:
        23:be:92:be:fa:c2:91:f2:03:6a:bb:9b:4a:11:4e:ad:95:93:
        db:61:b0:d5:22:b3:06:cb:91:0d:4a:ee:4c:21:4d:b1:9a:86:
        ad:81:40:09:81:b6:da:4d:78:3c:14:5d:f6:8e:00:16:95:f9:
        06:d2:9a:df:29:e9:36:8e:c5:26:e2:4c:ae:69:7f:13:62:8a:
        3a:12
-----BEGIN CERTIFICATE-----
MIIDbDCCAtWgAwIBAgIJAOAyXiYQZyzVMA0GCSqGSIb3DQEBBQUAMIGBMQswCQYD
VQQGEwJGUjEPMA0GA1UECBMGRnJhbmNlMRAwDgYDVQQKEwdPcGVuUjY2MRgwFgYD
VQQLEw9UZXN0aW5nIHB1cnBvc2UxFTATBgNVBAMTDE9wZW5SNjYgMjAwODEeMBwG
CSqGSIb3DQEJARYPb3BlbmxzZEBmcmVlLmZyMB4XDTA4MDcwNTEwMzUzMVoXDTEx
MDcwNTEwMzUzMVowgYExCzAJBgNVBAYTAkZSMQ8wDQYDVQQIEwZGcmFuY2UxEDAO
BgNVBAoTB09wZW5SNjYxGDAWBgNVBAsTD1Rlc3RpbmcgcHVycG9zZTEVMBMGA1UE
AxMMT3BlblI2NiAyMDA4MR4wHAYJKoZIhvcNAQkBFg9vcGVubHNkQGZyZWUuZnIw
gZ8wDQYJKoZIhvcNAQEBBQADgY0AMIGJAoGBAM/9du8DoeRqDV7XJtHdFordrMx5
Q7712p8atQNQh+jcjV6pg8vFq9hCOYy4BSwbeeCF5GgqW7ghHzAELhP9xfMYTUx5
WnTy2L1B3Sq6T+9AZ33Jm9r3pIsJXNi8cmBfbq6Qnztkiu3aRBEO6tLneuO4H40w
koAqDrIb1XKpERffAgMBAAGjgekwgeYwHQYDVR0OBBYEFPpuMqLRfv90Q1GhbiNw
H2yEyzq/MIG2BgNVHSMEga4wgauAFPpuMqLRfv90Q1GhbiNwH2yEyzq/oYGHpIGE
MIGBMQswCQYDVQQGEwJGUjEPMA0GA1UECBMGRnJhbmNlMRAwDgYDVQQKEwdPcGVu
UjY2MRgwFgYDVQQLEw9UZXN0aW5nIHB1cnBvc2UxFTATBgNVBAMTDE9wZW5SNjYg
MjAwODEeMBwGCSqGSIb3DQEJARYPb3BlbmxzZEBmcmVlLmZyggkA4DJeJhBnLNUw
DAYDVR0TBAUwAwEB/zANBgkqhkiG9w0BAQUFAAOBgQAwL21AYNkVFdfubARz9CJZ
fymhJNug2rQ1Hra/HzmdFyF2fXd/o/3ivU5YbpxW9J8oqSIMePUjvpK++sKR8gNq
u5tKEU6tlZPbYbDVIrMGy5ENSu5MIU2xmoatgUAJgbbaTXg8FF32jgAWlfkG0prf
Kek2jsUm4kyuaX8TYoo6Eg==
-----END CERTIFICATE-----
